; ModuleID = 'source-C-CXX/27/131.c'
source_filename = "source-C-CXX/27/131.c"
target datalayout = "e-m:e-p270:32:32-p271:32:32-p272:64:64-i64:64-f80:128-n8:16:32:64-S128"
target triple = "x86_64-pc-linux-gnu"

@.str = private unnamed_addr constant [3 x i8] c"%d\00", align 1

; Function Attrs: nounwind sspstrong uwtable
define dso_local void @main() local_unnamed_addr #0 {
  %1 = alloca [10000 x i8], align 16
  %2 = getelementptr inbounds [10000 x i8], [10000 x i8]* %1, i64 0, i64 0
  call void @llvm.lifetime.start.p0i8(i64 10000, i8* nonnull %2) #6
  %3 = call i32 (i8*, ...) bitcast (i32 (...)* @gets to i32 (i8*, ...)*)(i8* nonnull %2) #6
  %4 = call i64 @strlen(i8* noundef nonnull %2) #7
  %5 = trunc i64 %4 to i32
  %6 = icmp sgt i32 %5, 0
  br i1 %6, label %7, label %38

7:                                                ; preds = %0
  %8 = and i64 %4, 4294967295
  br label %9

9:                                                ; preds = %7, %34
  %10 = phi i64 [ 0, %7 ], [ %36, %34 ]
  %11 = phi i32 [ 0, %7 ], [ %35, %34 ]
  %12 = getelementptr inbounds [10000 x i8], [10000 x i8]* %1, i64 0, i64 %10
  %13 = load i8, i8* %12, align 1, !tbaa !5
  %14 = icmp eq i8 %13, 32
  br i1 %14, label %34, label %15

15:                                               ; preds = %9
  %16 = icmp eq i32 %11, 0
  br i1 %16, label %17, label %34

17:                                               ; preds = %15, %21
  %18 = phi i8 [ %25, %21 ], [ %13, %15 ]
  %19 = phi i64 [ %23, %21 ], [ %10, %15 ]
  %20 = phi i32 [ %22, %21 ], [ 0, %15 ]
  switch i8 %18, label %21 [
    i8 32, label %26
    i8 0, label %26
  ]

21:                                               ; preds = %17
  %22 = add nuw nsw i32 %20, 1
  %23 = add nuw i64 %19, 1
  %24 = getelementptr inbounds [10000 x i8], [10000 x i8]* %1, i64 0, i64 %23
  %25 = load i8, i8* %24, align 1, !tbaa !5
  br label %17, !llvm.loop !8

26:                                               ; preds = %17, %17
  %27 = and i64 %19, 4294967295
  %28 = getelementptr inbounds [10000 x i8], [10000 x i8]* %1, i64 0, i64 %27
  %29 = call i32 (i8*, ...) @printf(i8* nonnull dereferenceable(1) getelementptr inbounds ([3 x i8], [3 x i8]* @.str, i64 0, i64 0), i32 %20)
  %30 = load i8, i8* %28, align 1, !tbaa !5
  %31 = icmp eq i8 %30, 0
  br i1 %31, label %34, label %32

32:                                               ; preds = %26
  %33 = call i32 @putchar(i32 44)
  br label %34

34:                                               ; preds = %9, %26, %32, %15
  %35 = phi i32 [ 1, %32 ], [ 1, %26 ], [ 1, %15 ], [ 0, %9 ]
  %36 = add nuw nsw i64 %10, 1
  %37 = icmp eq i64 %36, %8
  br i1 %37, label %38, label %9, !llvm.loop !10

38:                                               ; preds = %34, %0
  call void @llvm.lifetime.end.p0i8(i64 10000, i8* nonnull %2) #6
  ret void
}

; Function Attrs: argmemonly mustprogress nofree nosync nounwind willreturn
declare void @llvm.lifetime.start.p0i8(i64 immarg, i8* nocapture) #1

declare i32 @gets(...) local_unnamed_addr #2

; Function Attrs: argmemonly mustprogress nofree nounwind readonly willreturn
declare i64 @strlen(i8* nocapture) local_unnamed_addr #3

; Function Attrs: nofree nounwind
declare noundef i32 @printf(i8* nocapture noundef readonly, ...) local_unnamed_addr #4

; Function Attrs: argmemonly mustprogress nofree nosync nounwind willreturn
declare void @llvm.lifetime.end.p0i8(i64 immarg, i8* nocapture) #1

; Function Attrs: nofree nounwind
declare noundef i32 @putchar(i32 noundef) local_unnamed_addr #5


!llvm.module.flags = !{!0, !1, !2, !3}
!llvm.ident = !{!4}

!0 = !{i32 1, !"wchar_size", i32 4}
!1 = !{i32 7, !"PIC Level", i32 2}
!2 = !{i32 7, !"PIE Level", i32 2}
!3 = !{i32 7, !"uwtable", i32 1}
!4 = !{!"clang version 13.0.0"}
!5 = !{!6, !6, i64 0}
!6 = !{!"omnipotent char", !7, i64 0}
!7 = !{!"Simple C/C++ TBAA"}
!8 = distinct !{!8, !9}
!9 = !{!"llvm.loop.mustprogress"}
!10 = distinct !{!10, !9}
